target datalayout = "e-m:e-p270:32:32-p271:32:32-p272:64:64-i64:64-i128:128-f80:128-n8:16:32:64-S128"
target triple = "x86_64-pc-linux-gnu"

%struct.X11GraphicsConfigIDs = type { ptr, ptr }
%struct.JNINativeInterface_ = type { ptr, ptr, ptr, ptr, ptr, ptr, ptr, ptr, ptr, ptr, ptr, ptr, ptr, ptr, ptr, ptr, ptr, ptr, ptr, ptr, ptr, ptr, ptr, ptr, ptr, ptr, ptr, ptr, ptr, ptr, ptr, ptr, ptr, ptr, ptr, ptr, ptr, ptr, ptr, ptr, ptr, ptr, ptr, ptr, ptr, ptr, ptr, ptr, ptr, ptr, ptr, ptr, ptr, ptr, ptr, ptr, ptr, ptr, ptr, ptr, ptr, ptr, ptr, ptr, ptr, ptr, ptr, ptr, ptr, ptr, ptr, ptr, ptr, ptr, ptr, ptr, ptr, ptr, ptr, ptr, ptr, ptr, ptr, ptr, ptr, ptr, ptr, ptr, ptr, ptr, ptr, ptr, ptr, ptr, ptr, ptr, ptr, ptr, ptr, ptr, ptr, ptr, ptr, ptr, ptr, ptr, ptr, ptr, ptr, ptr, ptr, ptr, ptr, ptr, ptr, ptr, ptr, ptr, ptr, ptr, ptr, ptr, ptr, ptr, ptr, ptr, ptr, ptr, ptr, ptr, ptr, ptr, ptr, ptr, ptr, ptr, ptr, ptr, ptr, ptr, ptr, ptr, ptr, ptr, ptr, ptr, ptr, ptr, ptr, ptr, ptr, ptr, ptr, ptr, ptr, ptr, ptr, ptr, ptr, ptr, ptr, ptr, ptr, ptr, ptr, ptr, ptr, ptr, ptr, ptr, ptr, ptr, ptr, ptr, ptr, ptr, ptr, ptr, ptr, ptr, ptr, ptr, ptr, ptr, ptr, ptr, ptr, ptr, ptr, ptr, ptr, ptr, ptr, ptr, ptr, ptr, ptr, ptr, ptr, ptr, ptr, ptr, ptr, ptr, ptr, ptr, ptr, ptr, ptr, ptr, ptr, ptr, ptr, ptr, ptr, ptr, ptr, ptr, ptr, ptr, ptr, ptr, ptr, ptr, ptr, ptr, ptr, ptr, ptr, ptr, ptr, ptr, ptr, ptr, ptr }
%struct.XVisualInfo = type { ptr, i64, i32, i32, i32, i64, i64, i64, i32, i32 }
%struct._AwtGraphicsConfigData = type { i32, i64, %struct.XVisualInfo, i32, ptr, ptr, ptr, i64, i32, i32, ptr, i32, ptr, ptr, i32, %struct.XRenderPictFormat }
%struct.XRenderPictFormat = type { i64, i32, i32, %struct.XRenderDirectFormat, i64 }
%struct.XRenderDirectFormat = type { i16, i16, i16, i16, i16, i16, i16, i16 }

@tkClass = hidden global ptr null, align 8
@awtLockMID = hidden global ptr null, align 8
@awtUnlockMID = hidden global ptr null, align 8
@awtLockInited = hidden global i8 0, align 1
@x11GraphicsConfigIDs = hidden global %struct.X11GraphicsConfigIDs zeroinitializer, align 8

; Function Attrs: nounwind uwtable
define ptr @Java_sun_awt_X11GraphicsConfig_makeColorModel(ptr noundef %0, ptr noundef %1) #0 {
  %3 = alloca ptr, align 8
  %4 = alloca ptr, align 8
  %5 = alloca ptr, align 8
  %6 = alloca ptr, align 8
  %7 = alloca ptr, align 8
  %8 = alloca ptr, align 8
  store ptr %0, ptr %4, align 8
  store ptr %1, ptr %5, align 8
  %9 = load i8, ptr @awtLockInited, align 1
  %10 = icmp ne i8 %9, 0
  br i1 %10, label %12, label %11

11:                                               ; preds = %2
  store ptr null, ptr %3, align 8
  br label %133

12:                                               ; preds = %2
  br label %13

13:                                               ; preds = %12
  %14 = load ptr, ptr %4, align 8
  %15 = load ptr, ptr %14, align 8
  %16 = getelementptr inbounds %struct.JNINativeInterface_, ptr %15, i32 0, i32 228
  %17 = load ptr, ptr %16, align 8
  %18 = load ptr, ptr %4, align 8
  %19 = call zeroext i8 %17(ptr noundef %18)
  %20 = icmp ne i8 %19, 0
  br i1 %20, label %21, label %27

21:                                               ; preds = %13
  %22 = load ptr, ptr %4, align 8
  %23 = load ptr, ptr %22, align 8
  %24 = getelementptr inbounds %struct.JNINativeInterface_, ptr %23, i32 0, i32 17
  %25 = load ptr, ptr %24, align 8
  %26 = load ptr, ptr %4, align 8
  call void %25(ptr noundef %26)
  br label %27

27:                                               ; preds = %21, %13
  %28 = load ptr, ptr %4, align 8
  %29 = load ptr, ptr %28, align 8
  %30 = getelementptr inbounds %struct.JNINativeInterface_, ptr %29, i32 0, i32 141
  %31 = load ptr, ptr %30, align 8
  %32 = load ptr, ptr %4, align 8
  %33 = load ptr, ptr @tkClass, align 8
  %34 = load ptr, ptr @awtLockMID, align 8
  call void (ptr, ptr, ptr, ...) %31(ptr noundef %32, ptr noundef %33, ptr noundef %34)
  %35 = load ptr, ptr %4, align 8
  %36 = load ptr, ptr %35, align 8
  %37 = getelementptr inbounds %struct.JNINativeInterface_, ptr %36, i32 0, i32 228
  %38 = load ptr, ptr %37, align 8
  %39 = load ptr, ptr %4, align 8
  %40 = call zeroext i8 %38(ptr noundef %39)
  %41 = icmp ne i8 %40, 0
  br i1 %41, label %42, label %48

42:                                               ; preds = %27
  %43 = load ptr, ptr %4, align 8
  %44 = load ptr, ptr %43, align 8
  %45 = getelementptr inbounds %struct.JNINativeInterface_, ptr %44, i32 0, i32 17
  %46 = load ptr, ptr %45, align 8
  %47 = load ptr, ptr %4, align 8
  call void %46(ptr noundef %47)
  br label %48

48:                                               ; preds = %42, %27
  br label %49

49:                                               ; preds = %48
  %50 = load ptr, ptr %4, align 8
  %51 = load ptr, ptr %50, align 8
  %52 = getelementptr inbounds %struct.JNINativeInterface_, ptr %51, i32 0, i32 101
  %53 = load ptr, ptr %52, align 8
  %54 = load ptr, ptr %4, align 8
  %55 = load ptr, ptr %5, align 8
  %56 = load ptr, ptr @x11GraphicsConfigIDs, align 8
  %57 = call i64 %53(ptr noundef %54, ptr noundef %55, ptr noundef %56)
  %58 = inttoptr i64 %57 to ptr
  store ptr %58, ptr %6, align 8
  %59 = load ptr, ptr %6, align 8
  %60 = getelementptr inbounds %struct._AwtGraphicsConfigData, ptr %59, i32 0, i32 1
  %61 = load i64, ptr %60, align 8
  %62 = icmp eq i64 %61, 0
  br i1 %62, label %63, label %66

63:                                               ; preds = %49
  %64 = load ptr, ptr %4, align 8
  %65 = load ptr, ptr %6, align 8
  call void @awtJNI_CreateColorData(ptr noundef %64, ptr noundef %65, i32 noundef 1)
  br label %66

66:                                               ; preds = %63, %49
  %67 = load ptr, ptr %4, align 8
  %68 = load ptr, ptr %67, align 8
  %69 = getelementptr inbounds %struct.JNINativeInterface_, ptr %68, i32 0, i32 228
  %70 = load ptr, ptr %69, align 8
  %71 = load ptr, ptr %4, align 8
  %72 = call zeroext i8 %70(ptr noundef %71)
  %73 = zext i8 %72 to i32
  %74 = icmp ne i32 %73, 0
  br i1 %74, label %75, label %76

75:                                               ; preds = %66
  br label %80

76:                                               ; preds = %66
  %77 = load ptr, ptr %4, align 8
  %78 = load ptr, ptr %6, align 8
  %79 = call ptr @awtJNI_GetColorModel(ptr noundef %77, ptr noundef %78)
  br label %80

80:                                               ; preds = %76, %75
  %81 = phi ptr [ null, %75 ], [ %79, %76 ]
  store ptr %81, ptr %7, align 8
  br label %82

82:                                               ; preds = %80
  call void (...) @awt_output_flush()
  br label %83

83:                                               ; preds = %82
  %84 = load ptr, ptr %4, align 8
  %85 = load ptr, ptr %84, align 8
  %86 = getelementptr inbounds %struct.JNINativeInterface_, ptr %85, i32 0, i32 15
  %87 = load ptr, ptr %86, align 8
  %88 = load ptr, ptr %4, align 8
  %89 = call ptr %87(ptr noundef %88)
  store ptr %89, ptr %8, align 8
  %90 = icmp ne ptr %89, null
  br i1 %90, label %91, label %97

91:                                               ; preds = %83
  %92 = load ptr, ptr %4, align 8
  %93 = load ptr, ptr %92, align 8
  %94 = getelementptr inbounds %struct.JNINativeInterface_, ptr %93, i32 0, i32 17
  %95 = load ptr, ptr %94, align 8
  %96 = load ptr, ptr %4, align 8
  call void %95(ptr noundef %96)
  br label %97

97:                                               ; preds = %91, %83
  %98 = load ptr, ptr %4, align 8
  %99 = load ptr, ptr %98, align 8
  %100 = getelementptr inbounds %struct.JNINativeInterface_, ptr %99, i32 0, i32 141
  %101 = load ptr, ptr %100, align 8
  %102 = load ptr, ptr %4, align 8
  %103 = load ptr, ptr @tkClass, align 8
  %104 = load ptr, ptr @awtUnlockMID, align 8
  call void (ptr, ptr, ptr, ...) %101(ptr noundef %102, ptr noundef %103, ptr noundef %104)
  %105 = load ptr, ptr %4, align 8
  %106 = load ptr, ptr %105, align 8
  %107 = getelementptr inbounds %struct.JNINativeInterface_, ptr %106, i32 0, i32 228
  %108 = load ptr, ptr %107, align 8
  %109 = load ptr, ptr %4, align 8
  %110 = call zeroext i8 %108(ptr noundef %109)
  %111 = icmp ne i8 %110, 0
  br i1 %111, label %112, label %118

112:                                              ; preds = %97
  %113 = load ptr, ptr %4, align 8
  %114 = load ptr, ptr %113, align 8
  %115 = getelementptr inbounds %struct.JNINativeInterface_, ptr %114, i32 0, i32 17
  %116 = load ptr, ptr %115, align 8
  %117 = load ptr, ptr %4, align 8
  call void %116(ptr noundef %117)
  br label %118

118:                                              ; preds = %112, %97
  %119 = load ptr, ptr %8, align 8
  %120 = icmp ne ptr %119, null
  br i1 %120, label %121, label %129

121:                                              ; preds = %118
  %122 = load ptr, ptr %4, align 8
  %123 = load ptr, ptr %122, align 8
  %124 = getelementptr inbounds %struct.JNINativeInterface_, ptr %123, i32 0, i32 13
  %125 = load ptr, ptr %124, align 8
  %126 = load ptr, ptr %4, align 8
  %127 = load ptr, ptr %8, align 8
  %128 = call i32 %125(ptr noundef %126, ptr noundef %127)
  br label %129

129:                                              ; preds = %121, %118
  br label %130

130:                                              ; preds = %129
  br label %131

131:                                              ; preds = %130
  %132 = load ptr, ptr %7, align 8
  store ptr %132, ptr %3, align 8
  br label %133

133:                                              ; preds = %131, %11
  %134 = load ptr, ptr %3, align 8
  ret ptr %134
}