; Function Attrs: nounwind uwtable
define ptr @Java_sun_awt_X11GraphicsConfig_makeColorModel(ptr noundef %0, ptr noundef %1) local_unnamed_addr #0 {
  %3 = load i8, ptr @awtLockInited, align 1
  %.not = icmp eq i8 %3, 0
  br i1 %.not, label %75, label %4

4:                                                ; preds = %2
  %5 = load ptr, ptr %0, align 8
  %6 = getelementptr inbounds i8, ptr %5, i64 1824
  %7 = load ptr, ptr %6, align 8
  %8 = tail call zeroext i8 %7(ptr noundef nonnull %0) #17
  %.not37 = icmp eq i8 %8, 0
  br i1 %.not37, label %13, label %9

9:                                                ; preds = %4
  %10 = load ptr, ptr %0, align 8
  %11 = getelementptr inbounds i8, ptr %10, i64 136
  %12 = load ptr, ptr %11, align 8
  tail call void %12(ptr noundef nonnull %0) #17
  br label %13

13:                                               ; preds = %9, %4
  %14 = load ptr, ptr %0, align 8
  %15 = getelementptr inbounds i8, ptr %14, i64 1128
  %16 = load ptr, ptr %15, align 8
  %17 = load ptr, ptr @tkClass, align 8
  %18 = load ptr, ptr @awtLockMID, align 8
  tail call void (ptr, ptr, ptr, ...) %16(ptr noundef nonnull %0, ptr noundef %17, ptr noundef %18) #17
  %19 = load ptr, ptr %0, align 8
  %20 = getelementptr inbounds i8, ptr %19, i64 1824
  %21 = load ptr, ptr %20, align 8
  %22 = tail call zeroext i8 %21(ptr noundef nonnull %0) #17
  %.not38 = icmp eq i8 %22, 0
  br i1 %.not38, label %27, label %23

23:                                               ; preds = %13
  %24 = load ptr, ptr %0, align 8
  %25 = getelementptr inbounds i8, ptr %24, i64 136
  %26 = load ptr, ptr %25, align 8
  tail call void %26(ptr noundef nonnull %0) #17
  br label %27

27:                                               ; preds = %13, %23
  %28 = load ptr, ptr %0, align 8
  %29 = getelementptr inbounds i8, ptr %28, i64 808
  %30 = load ptr, ptr %29, align 8
  %31 = load ptr, ptr @x11GraphicsConfigIDs, align 8
  %32 = tail call i64 %30(ptr noundef nonnull %0, ptr noundef %1, ptr noundef %31) #17
  %33 = inttoptr i64 %32 to ptr
  %34 = getelementptr inbounds i8, ptr %33, i64 8
  %35 = load i64, ptr %34, align 8
  %36 = icmp eq i64 %35, 0
  br i1 %36, label %37, label %38

37:                                               ; preds = %27
  tail call void @awtJNI_CreateColorData(ptr noundef nonnull %0, ptr noundef nonnull %33, i32 noundef 1) #17
  br label %38

38:                                               ; preds = %37, %27
  %39 = load ptr, ptr %0, align 8
  %40 = getelementptr inbounds i8, ptr %39, i64 1824
  %41 = load ptr, ptr %40, align 8
  %42 = tail call zeroext i8 %41(ptr noundef nonnull %0) #17
  %.not39 = icmp eq i8 %42, 0
  br i1 %.not39, label %43, label %45

43:                                               ; preds = %38
  %44 = tail call ptr @awtJNI_GetColorModel(ptr noundef nonnull %0, ptr noundef nonnull %33) #17
  br label %45

45:                                               ; preds = %38, %43
  %46 = phi ptr [ %44, %43 ], [ null, %38 ]
  tail call void (...) @awt_output_flush() #17
  %47 = load ptr, ptr %0, align 8
  %48 = getelementptr inbounds i8, ptr %47, i64 120
  %49 = load ptr, ptr %48, align 8
  %50 = tail call ptr %49(ptr noundef nonnull %0) #17
  %.not40 = icmp eq ptr %50, null
  br i1 %.not40, label %55, label %51

51:                                               ; preds = %45
  %52 = load ptr, ptr %0, align 8
  %53 = getelementptr inbounds i8, ptr %52, i64 136
  %54 = load ptr, ptr %53, align 8
  tail call void %54(ptr noundef nonnull %0) #17
  br label %55

55:                                               ; preds = %51, %45
  %56 = load ptr, ptr %0, align 8
  %57 = getelementptr inbounds i8, ptr %56, i64 1128
  %58 = load ptr, ptr %57, align 8
  %59 = load ptr, ptr @tkClass, align 8
  %60 = load ptr, ptr @awtUnlockMID, align 8
  tail call void (ptr, ptr, ptr, ...) %58(ptr noundef nonnull %0, ptr noundef %59, ptr noundef %60) #17
  %61 = load ptr, ptr %0, align 8
  %62 = getelementptr inbounds i8, ptr %61, i64 1824
  %63 = load ptr, ptr %62, align 8
  %64 = tail call zeroext i8 %63(ptr noundef nonnull %0) #17
  %.not41 = icmp eq i8 %64, 0
  br i1 %.not41, label %69, label %65

65:                                               ; preds = %55
  %66 = load ptr, ptr %0, align 8
  %67 = getelementptr inbounds i8, ptr %66, i64 136
  %68 = load ptr, ptr %67, align 8
  tail call void %68(ptr noundef nonnull %0) #17
  br label %69

69:                                               ; preds = %65, %55
  br i1 %.not40, label %75, label %70

70:                                               ; preds = %69
  %71 = load ptr, ptr %0, align 8
  %72 = getelementptr inbounds i8, ptr %71, i64 104
  %73 = load ptr, ptr %72, align 8
  %74 = tail call i32 %73(ptr noundef nonnull %0, ptr noundef nonnull %50) #17
  br label %75

75:                                               ; preds = %69, %70, %2
  %.0 = phi ptr [ null, %2 ], [ %46, %70 ], [ %46, %69 ]
  ret ptr %.0
}